; Function Attrs: mustprogress nofree nounwind willreturn memory(readwrite, argmem: read) uwtable
define noalias noundef ptr @Iso_StoStart(ptr noundef %0) local_unnamed_addr #0 {
  %2 = tail call noalias dereferenceable_or_null(56) ptr @calloc(i64 noundef 1, i64 noundef 56) #15
  store ptr %0, ptr %2, align 8
  %3 = getelementptr i8, ptr %0, i64 32
  %.val = load ptr, ptr %3, align 8
  %4 = getelementptr i8, ptr %.val, i64 4
  %.val.val = load i32, ptr %4, align 4
  %5 = getelementptr inbounds nuw i8, ptr %2, i64 8
  store i32 %.val.val, ptr %5, align 8
  %6 = sext i32 %.val.val to i64
  %7 = tail call noalias ptr @calloc(i64 noundef %6, i64 noundef 4) #15
  %8 = getelementptr inbounds nuw i8, ptr %2, i64 16
  store ptr %7, ptr %8, align 8
  %9 = tail call noalias dereferenceable_or_null(16) ptr @malloc(i64 noundef 16) #16
  %10 = getelementptr inbounds nuw i8, ptr %9, i64 4
  store i32 1000, ptr %9, align 8
  %calloc.i = tail call dereferenceable_or_null(4000) ptr @calloc(i64 1, i64 4000)
  %11 = getelementptr inbounds nuw i8, ptr %9, i64 8
  store ptr %calloc.i, ptr %11, align 8
  store i32 1000, ptr %10, align 4
  %12 = getelementptr inbounds nuw i8, ptr %2, i64 24
  store ptr %9, ptr %12, align 8
  %13 = tail call noalias dereferenceable_or_null(16) ptr @malloc(i64 noundef 16) #16
  %14 = getelementptr inbounds nuw i8, ptr %13, i64 4
  store i32 1000, ptr %13, align 8
  %calloc.i11 = tail call dereferenceable_or_null(4000) ptr @calloc(i64 1, i64 4000)
  %15 = getelementptr inbounds nuw i8, ptr %13, i64 8
  store ptr %calloc.i11, ptr %15, align 8
  store i32 1000, ptr %14, align 4
  %16 = getelementptr inbounds nuw i8, ptr %2, i64 40
  store ptr %13, ptr %16, align 8
  %17 = tail call noalias dereferenceable_or_null(16) ptr @malloc(i64 noundef 16) #16
  %18 = getelementptr inbounds nuw i8, ptr %17, i64 4
  store i32 1000, ptr %17, align 8
  %calloc.i12 = tail call dereferenceable_or_null(8000) ptr @calloc(i64 1, i64 8000)
  %19 = getelementptr inbounds nuw i8, ptr %17, i64 8
  store ptr %calloc.i12, ptr %19, align 8
  store i32 1000, ptr %18, align 4
  %20 = getelementptr inbounds nuw i8, ptr %2, i64 32
  store ptr %17, ptr %20, align 8
  %21 = tail call noalias dereferenceable_or_null(262144) ptr @calloc(i64 noundef 65536, i64 noundef 4) #15
  %22 = getelementptr inbounds nuw i8, ptr %2, i64 48
  store ptr %21, ptr %22, align 8
  ret ptr %2
}